; Function Attrs: mustprogress nounwind uwtable
define dso_local void @_ZN4llvm8codeview19SymbolRecordMapping14visitSymbolEndERNS0_8CVRecordINS0_10SymbolKindEEE(ptr dead_on_unwind noalias writable sret(%"class.llvm::Error") align 8 %0, ptr noundef nonnull align 8 dereferenceable(92) %1, ptr nocapture nonnull readnone align 1 %2) unnamed_addr #0 align 2 {
_ZN4llvm5ErrorD2Ev.exit:
  %3 = getelementptr inbounds nuw i8, ptr %1, i64 16
  %4 = getelementptr inbounds nuw i8, ptr %1, i64 88
  %5 = load i32, ptr %4, align 8
  %6 = icmp eq i32 %5, 0
  %..i = select i1 %6, i32 1, i32 4
  tail call void @_ZN4llvm8codeview16CodeViewRecordIO14padToAlignmentEj(ptr dead_on_unwind writable sret(%"class.llvm::Error") align 8 %0, ptr noundef nonnull align 8 dereferenceable(72) %3, i32 noundef %..i) #16
  %7 = load ptr, ptr %0, align 8
  %.not = icmp eq ptr %7, null
  br i1 %.not, label %_ZN4llvm5ErrorD2Ev.exit8, label %_ZN4llvm12ErrorSuccessD2Ev.exit

_ZN4llvm5ErrorD2Ev.exit8:                         ; preds = %_ZN4llvm5ErrorD2Ev.exit
  tail call void @_ZN4llvm8codeview16CodeViewRecordIO9endRecordEv(ptr dead_on_unwind nonnull writable sret(%"class.llvm::Error") align 8 %0, ptr noundef nonnull align 8 dereferenceable(72) %3) #16
  br label %_ZN4llvm12ErrorSuccessD2Ev.exit

_ZN4llvm12ErrorSuccessD2Ev.exit:                  ; preds = %_ZN4llvm5ErrorD2Ev.exit8, %_ZN4llvm5ErrorD2Ev.exit
  ret void
}